; Function Attrs: mustprogress uwtable
define internal noundef range(i32 0, 4) i32 @_ZL49ssl_server_handshaker_factory_servername_callbackP6ssl_stPiPv(ptr noundef %0, ptr readnone captures(none) %1, ptr noundef readonly captures(none) %2) #3 personality ptr @__gxx_personality_v0 {
  %4 = alloca ptr, align 8
  %5 = alloca %"class.absl::lts_20240722::log_internal::LogMessage", align 8
  call void @llvm.lifetime.start.p0(i64 8, ptr nonnull %4) #32
  %6 = tail call ptr @SSL_get_servername(ptr noundef %0, i32 noundef 0)
  store ptr %6, ptr %4, align 8, !tbaa !23
  %7 = icmp eq ptr %6, null
  br i1 %7, label %32, label %8

8:                                                ; preds = %3
  %char0 = load i8, ptr %6, align 1
  %9 = icmp eq i8 %char0, 0
  br i1 %9, label %32, label %.preheader

.preheader:                                       ; preds = %8
  %10 = getelementptr inbounds nuw i8, ptr %2, i64 32
  %11 = load i64, ptr %10, align 8, !tbaa !79
  %.not17 = icmp eq i64 %11, 0
  br i1 %.not17, label %._crit_edge, label %.lr.ph

.lr.ph:                                           ; preds = %.preheader
  %12 = getelementptr inbounds nuw i8, ptr %2, i64 24
  br label %13

13:                                               ; preds = %.lr.ph, %24
  %.01216 = phi i64 [ 0, %.lr.ph ], [ %25, %24 ]
  %14 = load ptr, ptr %12, align 8, !tbaa !174
  %15 = getelementptr inbounds nuw %struct.tsi_peer, ptr %14, i64 %.01216
  %16 = tail call noundef i64 @strlen(ptr noundef nonnull dereferenceable(1) %6) #32
  %17 = tail call noundef i32 @_Z25tsi_ssl_peer_matches_namePK8tsi_peerSt17basic_string_viewIcSt11char_traitsIcEE(ptr noundef %15, i64 %16, ptr nonnull %6)
  %.not = icmp eq i32 %17, 0
  br i1 %.not, label %24, label %18

18:                                               ; preds = %13
  %19 = getelementptr inbounds nuw i8, ptr %2, i64 16
  %20 = load ptr, ptr %19, align 8, !tbaa !84
  %21 = getelementptr inbounds nuw ptr, ptr %20, i64 %.01216
  %22 = load ptr, ptr %21, align 8, !tbaa !85
  %23 = tail call ptr @SSL_set_SSL_CTX(ptr noundef %0, ptr noundef %22)
  br label %32

24:                                               ; preds = %13
  %25 = add nuw i64 %.01216, 1
  %26 = load i64, ptr %10, align 8, !tbaa !79
  %27 = icmp ult i64 %25, %26
  br i1 %27, label %13, label %._crit_edge, !llvm.loop !184

._crit_edge:                                      ; preds = %24, %.preheader
  call void @llvm.lifetime.start.p0(i64 16, ptr nonnull %5) #32
  call void @_ZN4absl12lts_2024072212log_internal10LogMessageC1EPKciNS2_8ErrorTagE(ptr noundef nonnull align 8 dereferenceable(16) %5, ptr noundef nonnull @.str.1, i32 noundef 2140) #33
  invoke void @_ZN4absl12lts_2024072212log_internal10LogMessage19CopyToEncodedBufferILNS2_10StringTypeE0EEEvSt17basic_string_viewIcSt11char_traitsIcEE(ptr noundef nonnull align 8 dereferenceable(16) %5, i64 32, ptr nonnull @.str.100)
          to label %_ZN4absl12lts_2024072212log_internal10LogMessagelsILi33EEERS2_RAT__Kc.exit unwind label %30

_ZN4absl12lts_2024072212log_internal10LogMessagelsILi33EEERS2_RAT__Kc.exit: ; preds = %._crit_edge
  %28 = invoke noundef nonnull align 8 dereferenceable(16) ptr @_ZN4absl12lts_2024072212log_internal10LogMessagelsIPKcTnNSt9enable_ifIXntsr4absl16HasAbslStringifyIT_EE5valueEiE4typeELi0EEERS2_RKS7_(ptr noundef nonnull align 8 dereferenceable(16) %5, ptr noundef nonnull align 8 dereferenceable(8) %4)
          to label %29 unwind label %30

29:                                               ; preds = %_ZN4absl12lts_2024072212log_internal10LogMessagelsILi33EEERS2_RAT__Kc.exit
  call void @_ZN4absl12lts_2024072212log_internal10LogMessageD1Ev(ptr noundef nonnull align 8 dereferenceable(16) %5) #34
  call void @llvm.lifetime.end.p0(i64 16, ptr nonnull %5) #32
  br label %32

30:                                               ; preds = %._crit_edge, %_ZN4absl12lts_2024072212log_internal10LogMessagelsILi33EEERS2_RAT__Kc.exit
  %31 = landingpad { ptr, i32 }
          cleanup
  call void @_ZN4absl12lts_2024072212log_internal10LogMessageD1Ev(ptr noundef nonnull align 8 dereferenceable(16) %5) #34
  call void @llvm.lifetime.end.p0(i64 16, ptr nonnull %5) #32
  call void @llvm.lifetime.end.p0(i64 8, ptr nonnull %4) #32
  resume { ptr, i32 } %31

32:                                               ; preds = %3, %8, %29, %18
  %.0 = phi i32 [ 0, %18 ], [ 3, %29 ], [ 3, %8 ], [ 3, %3 ]
  call void @llvm.lifetime.end.p0(i64 8, ptr nonnull %4) #32
  ret i32 %.0
}